; Function Attrs: mustprogress uwtable
define void @_ZN19OpenColorIO_v2_5devooERKSt10shared_ptrIKNS_13ColorSpaceSetEES5_(ptr dead_on_unwind noalias writable writeonly sret(%"class.std::shared_ptr.3") align 8 captures(none) %0, ptr noundef nonnull readonly align 8 captures(none) dereferenceable(16) %1, ptr noundef nonnull readonly align 8 captures(none) dereferenceable(16) %2) local_unnamed_addr #0 personality ptr @__gxx_personality_v0 {
  %4 = alloca %"class.std::shared_ptr", align 8
  call void @llvm.lifetime.start.p0(i64 16, ptr nonnull %4) #23
  %5 = load ptr, ptr %1, align 8, !tbaa !63
  tail call void @llvm.experimental.noalias.scope.decl(metadata !66)
  call void @_ZN19OpenColorIO_v2_5dev13ColorSpaceSet6CreateEv(ptr dead_on_unwind nonnull writable sret(%"class.std::shared_ptr") align 8 %4)
  %6 = load ptr, ptr %5, align 8, !tbaa !22, !noalias !66
  %7 = load ptr, ptr %4, align 8, !tbaa !3, !alias.scope !66
  %8 = load ptr, ptr %7, align 8, !tbaa !22, !noalias !66
  %9 = invoke noundef nonnull align 8 dereferenceable(24) ptr @_ZN19OpenColorIO_v2_5dev13ColorSpaceSet4ImplaSERKS1_(ptr noundef nonnull align 8 dereferenceable(24) %8, ptr noundef nonnull align 8 dereferenceable(24) %6)
          to label %_ZNK19OpenColorIO_v2_5dev13ColorSpaceSet18createEditableCopyEv.exit unwind label %10, !noalias !66

common.resume:                                    ; preds = %19, %10
  %common.resume.op = phi { ptr, i32 } [ %11, %10 ], [ %20, %19 ]
  resume { ptr, i32 } %common.resume.op

10:                                               ; preds = %3
  %11 = landingpad { ptr, i32 }
          cleanup
  call void @_ZNSt12__shared_ptrIN19OpenColorIO_v2_5dev13ColorSpaceSetELN9__gnu_cxx12_Lock_policyE2EED2Ev(ptr noundef nonnull align 8 dereferenceable(16) %4) #23
  br label %common.resume

_ZNK19OpenColorIO_v2_5dev13ColorSpaceSet18createEditableCopyEv.exit: ; preds = %3
  %12 = load ptr, ptr %7, align 8, !tbaa !22
  %13 = load ptr, ptr %2, align 8, !tbaa !63
  %14 = load ptr, ptr %13, align 8, !tbaa !22
  invoke void @_ZN19OpenColorIO_v2_5dev13ColorSpaceSet4Impl3addERKS1_(ptr noundef nonnull align 8 dereferenceable(24) %12, ptr noundef nonnull align 8 dereferenceable(24) %14)
          to label %_ZNSt12__shared_ptrIN19OpenColorIO_v2_5dev13ColorSpaceSetELN9__gnu_cxx12_Lock_policyE2EED2Ev.exit unwind label %19

_ZNSt12__shared_ptrIN19OpenColorIO_v2_5dev13ColorSpaceSetELN9__gnu_cxx12_Lock_policyE2EED2Ev.exit: ; preds = %_ZNK19OpenColorIO_v2_5dev13ColorSpaceSet18createEditableCopyEv.exit
  %15 = load ptr, ptr %4, align 8, !tbaa !3
  store ptr %15, ptr %0, align 8, !tbaa !63
  %16 = getelementptr inbounds nuw i8, ptr %0, i64 8
  %17 = getelementptr inbounds nuw i8, ptr %4, i64 8
  %18 = load ptr, ptr %17, align 8, !tbaa !11
  store ptr %18, ptr %16, align 8, !tbaa !11
  call void @llvm.lifetime.end.p0(i64 16, ptr nonnull %4) #23
  ret void

19:                                               ; preds = %_ZNK19OpenColorIO_v2_5dev13ColorSpaceSet18createEditableCopyEv.exit
  %20 = landingpad { ptr, i32 }
          cleanup
  call void @_ZNSt12__shared_ptrIN19OpenColorIO_v2_5dev13ColorSpaceSetELN9__gnu_cxx12_Lock_policyE2EED2Ev(ptr noundef nonnull align 8 dereferenceable(16) %4) #23
  call void @llvm.lifetime.end.p0(i64 16, ptr nonnull %4) #23
  br label %common.resume
}